; Function Attrs: nounwind uwtable
define noundef ptr @fdt_stringlist_get(ptr noundef %0, i32 noundef %1, ptr noundef readonly captures(none) %2, i32 noundef %3, ptr noundef writeonly captures(address_is_null) %4) local_unnamed_addr #0 {
  %6 = alloca i32, align 4
  %7 = alloca i32, align 4
  call void @llvm.lifetime.start.p0(i64 4, ptr nonnull %7) #9
  %8 = tail call i64 @strlen(ptr noundef nonnull readonly dereferenceable(1) %2) #10
  %9 = trunc i64 %8 to i32
  call void @llvm.lifetime.start.p0(i64 4, ptr nonnull %6) #9
  %10 = call fastcc ptr @fdt_get_property_namelen_(ptr noundef %0, i32 noundef %1, ptr noundef nonnull readonly %2, i32 noundef %9, ptr noundef nonnull %7, ptr noundef nonnull %6)
  %.not.i.i = icmp eq ptr %10, null
  br i1 %.not.i.i, label %55, label %11

11:                                               ; preds = %5
  %12 = getelementptr inbounds nuw i8, ptr %0, i64 20
  %13 = load i8, ptr %12, align 1, !tbaa !3
  %14 = zext i8 %13 to i32
  %15 = shl nuw i32 %14, 24
  %16 = getelementptr inbounds nuw i8, ptr %0, i64 21
  %17 = load i8, ptr %16, align 1, !tbaa !3
  %18 = zext i8 %17 to i32
  %19 = shl nuw nsw i32 %18, 16
  %20 = or disjoint i32 %19, %15
  %21 = getelementptr inbounds nuw i8, ptr %0, i64 22
  %22 = load i8, ptr %21, align 1, !tbaa !3
  %23 = zext i8 %22 to i32
  %24 = shl nuw nsw i32 %23, 8
  %25 = or disjoint i32 %20, %24
  %26 = getelementptr inbounds nuw i8, ptr %0, i64 23
  %27 = load i8, ptr %26, align 1, !tbaa !3
  %28 = zext i8 %27 to i32
  %29 = or disjoint i32 %25, %28
  %30 = icmp ult i32 %29, 16
  br i1 %30, label %31, label %54

31:                                               ; preds = %11
  %32 = load i32, ptr %6, align 4, !tbaa !6
  %33 = and i32 %32, 7
  %.not11.i.i = icmp eq i32 %33, 4
  br i1 %.not11.i.i, label %54, label %34

34:                                               ; preds = %31
  %35 = getelementptr inbounds nuw i8, ptr %10, i64 4
  %36 = load i8, ptr %35, align 1, !tbaa !3
  %37 = zext i8 %36 to i32
  %38 = shl nuw i32 %37, 24
  %39 = getelementptr inbounds nuw i8, ptr %10, i64 5
  %40 = load i8, ptr %39, align 1, !tbaa !3
  %41 = zext i8 %40 to i32
  %42 = shl nuw nsw i32 %41, 16
  %43 = or disjoint i32 %42, %38
  %44 = getelementptr inbounds nuw i8, ptr %10, i64 6
  %45 = load i8, ptr %44, align 1, !tbaa !3
  %46 = zext i8 %45 to i32
  %47 = shl nuw nsw i32 %46, 8
  %48 = or disjoint i32 %43, %47
  %49 = getelementptr inbounds nuw i8, ptr %10, i64 7
  %50 = load i8, ptr %49, align 1, !tbaa !3
  %51 = zext i8 %50 to i32
  %52 = or disjoint i32 %48, %51
  %53 = icmp ugt i32 %52, 7
  br i1 %53, label %58, label %54

54:                                               ; preds = %34, %31, %11
  br label %58

55:                                               ; preds = %5
  call void @llvm.lifetime.end.p0(i64 4, ptr nonnull %6) #9
  %.not30 = icmp eq ptr %4, null
  br i1 %.not30, label %81, label %56

56:                                               ; preds = %55
  %57 = load i32, ptr %7, align 4, !tbaa !6
  br label %.sink.split

58:                                               ; preds = %34, %54
  %.sink = phi i64 [ 12, %54 ], [ 16, %34 ]
  %59 = getelementptr inbounds nuw i8, ptr %10, i64 %.sink
  call void @llvm.lifetime.end.p0(i64 4, ptr nonnull %6) #9
  %60 = load i32, ptr %7, align 4, !tbaa !6
  %61 = sext i32 %60 to i64
  %62 = getelementptr inbounds i8, ptr %59, i64 %61
  %63 = icmp sgt i32 %60, 0
  br i1 %63, label %.lr.ph, label %._crit_edge

.lr.ph:                                           ; preds = %58
  %64 = ptrtoint ptr %62 to i64
  br label %68

65:                                               ; preds = %78
  %66 = add nsw i32 %.02540, -1
  %67 = icmp ult ptr %75, %62
  br i1 %67, label %68, label %._crit_edge, !llvm.loop !29

68:                                               ; preds = %.lr.ph, %65
  %.02441 = phi ptr [ %59, %.lr.ph ], [ %75, %65 ]
  %.02540 = phi i32 [ %3, %.lr.ph ], [ %66, %65 ]
  %69 = ptrtoint ptr %.02441 to i64
  %70 = sub i64 %64, %69
  %71 = call i64 @strnlen(ptr noundef %.02441, i64 noundef %70) #10
  %72 = trunc i64 %71 to i32
  %73 = add i32 %72, 1
  store i32 %73, ptr %7, align 4, !tbaa !6
  %74 = sext i32 %73 to i64
  %75 = getelementptr inbounds i8, ptr %.02441, i64 %74
  %76 = icmp ugt ptr %75, %62
  br i1 %76, label %77, label %78

77:                                               ; preds = %68
  %.not33 = icmp eq ptr %4, null
  br i1 %.not33, label %81, label %.sink.split

78:                                               ; preds = %68
  %79 = icmp eq i32 %.02540, 0
  br i1 %79, label %80, label %65

80:                                               ; preds = %78
  %.not32 = icmp eq ptr %4, null
  br i1 %.not32, label %81, label %.sink.split

._crit_edge:                                      ; preds = %65, %58
  %.not31 = icmp eq ptr %4, null
  br i1 %.not31, label %81, label %.sink.split

.sink.split:                                      ; preds = %._crit_edge, %80, %77, %56
  %.sink50 = phi i32 [ %57, %56 ], [ -15, %77 ], [ %72, %80 ], [ -1, %._crit_edge ]
  %.0.ph = phi ptr [ null, %56 ], [ null, %77 ], [ %.02441, %80 ], [ null, %._crit_edge ]
  store i32 %.sink50, ptr %4, align 4, !tbaa !6
  br label %81

81:                                               ; preds = %.sink.split, %._crit_edge, %80, %77, %55
  %.0 = phi ptr [ null, %55 ], [ null, %77 ], [ %.02441, %80 ], [ null, %._crit_edge ], [ %.0.ph, %.sink.split ]
  call void @llvm.lifetime.end.p0(i64 4, ptr nonnull %7) #9
  ret ptr %.0
}